((carray
array
p1
(S'd'
(lp2
F1
aF0.99727272727272731
aF0.99545454545454548
aF0.99454545454545451
aF0.99272727272727268
aF0.99181818181818182
aF0.99181818181818182
aF0.98999999999999999
aF0.98909090909090913
aF0.98636363636363633
aF0.98363636363636364
aF0.98090909090909095
aF0.97727272727272729
aF0.97272727272727277
aF0.9718181818181818
aF0.96999999999999997
aF0.96818181818181814
aF0.96545454545454545
aF0.96363636363636362
aF0.96363636363636362
aF0.96181818181818179
aF0.95545454545454545
aF0.94999999999999996
aF0.93909090909090909
aF0.93181818181818177
aF0.92363636363636359
aF0.91454545454545455
aF0.90636363636363637
aF0.89909090909090905
aF0.88636363636363635
aF0.87727272727272732
aF0.87
aF0.85999999999999999
aF0.84363636363636363
aF0.83636363636363631
aF0.82181818181818178
aF0.80818181818181822
aF0.79090909090909089
aF0.7654545454545455
aF0.73999999999999999
aF0.70818181818181813
aF0.68818181818181823
aF0.66454545454545455
aF0.63545454545454549
aF0.59090909090909094
aF0.54909090909090907
aF0.50727272727272732
aF0.43636363636363634
aF0.35181818181818181
aF0.21818181818181817
aF0
atRp3
g1
(S'd'
(lp4
F0
aF0.57818181818181813
aF0.64090909090909087
aF0.6709090909090909
aF0.68818181818181823
aF0.6990909090909091
aF0.70818181818181813
aF0.71636363636363631
aF0.72363636363636363
aF0.7372727272727273
aF0.74727272727272731
aF0.75636363636363635
aF0.76727272727272722
aF0.77454545454545454
aF0.78181818181818186
aF0.78818181818181821
aF0.79363636363636358
aF0.79909090909090907
aF0.80363636363636359
aF0.80727272727272725
aF0.81545454545454543
aF0.81909090909090909
aF0.82363636363636361
aF0.83454545454545459
aF0.84727272727272729
aF0.85545454545454547
aF0.86090909090909096
aF0.86818181818181817
aF0.87363636363636366
aF0.87909090909090915
aF0.88545454545454549
aF0.89454545454545453
aF0.90181818181818185
aF0.90909090909090906
aF0.91363636363636369
aF0.9209090909090909
aF0.92727272727272725
aF0.93454545454545457
aF0.93818181818181823
aF0.94545454545454544
aF0.95454545454545459
aF0.96181818181818179
aF0.96636363636363631
aF0.97090909090909094
aF0.97727272727272729
aF0.98090909090909095
aF0.98272727272727278
aF0.98818181818181816
aF0.99090909090909096
aF0.99818181818181817
aF1
atRp5
t(g1
(S'd'
(lp6
F1
aF0.98545454545454547
aF0.98363636363636364
aF0.98272727272727278
aF0.98272727272727278
aF0.97818181818181815
aF0.97636363636363632
aF0.97636363636363632
aF0.97636363636363632
aF0.97272727272727277
aF0.9718181818181818
aF0.97090909090909094
aF0.96818181818181814
aF0.96454545454545459
aF0.95636363636363642
aF0.95545454545454545
aF0.95181818181818179
aF0.94999999999999996
aF0.94818181818181824
aF0.94363636363636361
aF0.94272727272727275
aF0.94090909090909092
aF0.93999999999999995
aF0.93454545454545457
aF0.91818181818181821
aF0.91090909090909089
aF0.90181818181818185
aF0.88909090909090904
aF0.88
aF0.87181818181818183
aF0.85999999999999999
aF0.84909090909090912
aF0.83818181818181814
aF0.82727272727272727
aF0.81000000000000005
aF0.79909090909090907
aF0.78363636363636369
aF0.76181818181818184
aF0.74454545454545451
aF0.71363636363636362
aF0.69090909090909092
aF0.66363636363636369
aF0.63090909090909086
aF0.60272727272727278
aF0.56454545454545457
aF0.52000000000000002
aF0.48181818181818181
aF0.4209090909090909
aF0.33909090909090911
aF0.21818181818181817
aF0
atRp7
g1
(S'd'
(lp8
F0
aF0.50454545454545452
aF0.56999999999999995
aF0.60363636363636364
aF0.62636363636363634
aF0.65272727272727271
aF0.66909090909090907
aF0.68090909090909091
aF0.69181818181818178
aF0.70272727272727276
aF0.71272727272727276
aF0.72454545454545449
aF0.73090909090909095
aF0.73363636363636364
aF0.74545454545454548
aF0.75
aF0.76000000000000001
aF0.76818181818181819
aF0.77363636363636368
aF0.78000000000000003
aF0.78545454545454541
aF0.78909090909090907
aF0.80272727272727273
aF0.81000000000000005
aF0.82090909090909092
aF0.83454545454545459
aF0.84090909090909094
aF0.85545454545454547
aF0.85818181818181816
aF0.86454545454545451
aF0.87
aF0.87909090909090915
aF0.89000000000000001
aF0.8954545454545455
aF0.90090909090909088
aF0.91000000000000003
aF0.91545454545454541
aF0.92636363636363639
aF0.93090909090909091
aF0.93545454545454543
aF0.94181818181818178
aF0.94727272727272727
aF0.95272727272727276
aF0.95636363636363642
aF0.96181818181818179
aF0.96818181818181814
aF0.97727272727272729
aF0.98272727272727278
aF0.98818181818181816
aF0.99272727272727268
aF1
atRp9
tt.