((carray
array
p1
(S'd'
(lp2
F1
aF0.99960000000000004
aF0.99960000000000004
aF0.99939999999999996
aF0.99880000000000002
aF0.99860000000000004
aF0.99860000000000004
aF0.99819999999999998
aF0.998
aF0.99780000000000002
aF0.99739999999999995
aF0.99660000000000004
aF0.99619999999999997
aF0.996
aF0.99580000000000002
aF0.99580000000000002
aF0.99519999999999997
aF0.99480000000000002
aF0.99419999999999997
aF0.99380000000000002
aF0.99360000000000004
aF0.99280000000000002
aF0.99260000000000004
aF0.99219999999999997
aF0.99180000000000001
aF0.99119999999999997
aF0.99039999999999995
aF0.98999999999999999
aF0.98939999999999995
aF0.98839999999999995
aF0.98719999999999997
aF0.98660000000000003
aF0.98619999999999997
aF0.98519999999999996
aF0.98460000000000003
aF0.98260000000000003
aF0.98040000000000005
aF0.9788
aF0.97660000000000002
aF0.97440000000000004
aF0.97299999999999998
aF0.97040000000000004
aF0.96760000000000002
aF0.96199999999999997
aF0.95620000000000005
aF0.95079999999999998
aF0.94199999999999995
aF0.9304
aF0.91200000000000003
aF0.86080000000000001
aF0
atRp3
g1
(S'd'
(lp4
F0
aF0.93479999999999996
aF0.94820000000000004
aF0.95599999999999996
aF0.95960000000000001
aF0.96199999999999997
aF0.96419999999999995
aF0.96699999999999997
aF0.96799999999999997
aF0.96940000000000004
aF0.97019999999999995
aF0.97219999999999995
aF0.97240000000000004
aF0.9738
aF0.97540000000000004
aF0.97599999999999998
aF0.97719999999999996
aF0.9778
aF0.9788
aF0.98040000000000005
aF0.98099999999999998
aF0.98160000000000003
aF0.98199999999999998
aF0.98240000000000005
aF0.98319999999999996
aF0.98340000000000005
aF0.98399999999999999
aF0.98419999999999996
aF0.98480000000000001
aF0.98499999999999999
aF0.98580000000000001
aF0.98619999999999997
aF0.98640000000000005
aF0.98660000000000003
aF0.98680000000000001
aF0.98799999999999999
aF0.98860000000000003
aF0.98860000000000003
aF0.98919999999999997
aF0.98960000000000004
aF0.98999999999999999
aF0.99139999999999995
aF0.99180000000000001
aF0.99280000000000002
aF0.99339999999999995
aF0.99380000000000002
aF0.99439999999999995
aF0.99539999999999995
aF0.99660000000000004
aF0.998
aF1
atRp5
t(g1
(S'd'
(lp6
F1
aF0.99960000000000004
aF0.99880000000000002
aF0.99819999999999998
aF0.99819999999999998
aF0.99739999999999995
aF0.997
aF0.99639999999999995
aF0.99580000000000002
aF0.99539999999999995
aF0.99539999999999995
aF0.99539999999999995
aF0.995
aF0.99480000000000002
aF0.99460000000000004
aF0.99419999999999997
aF0.99399999999999999
aF0.99339999999999995
aF0.99319999999999997
aF0.99319999999999997
aF0.99199999999999999
aF0.99139999999999995
aF0.99080000000000001
aF0.99019999999999997
aF0.98999999999999999
aF0.98919999999999997
aF0.98839999999999995
aF0.98760000000000003
aF0.98640000000000005
aF0.98540000000000005
aF0.98460000000000003
aF0.98319999999999996
aF0.98219999999999996
aF0.98099999999999998
aF0.9798
aF0.97760000000000002
aF0.97660000000000002
aF0.97440000000000004
aF0.97319999999999995
aF0.9698
aF0.96699999999999997
aF0.96579999999999999
aF0.96379999999999999
aF0.95940000000000003
aF0.9546
aF0.94679999999999997
aF0.93799999999999994
aF0.92700000000000005
aF0.91039999999999999
aF0.86439999999999995
aF0
atRp7
g1
(S'd'
(lp8
F0
aF0.94359999999999999
aF0.95320000000000005
aF0.95999999999999996
aF0.96340000000000003
aF0.96540000000000004
aF0.96819999999999995
aF0.97019999999999995
aF0.97199999999999998
aF0.97340000000000004
aF0.97440000000000004
aF0.97499999999999998
aF0.97599999999999998
aF0.9768
aF0.97719999999999996
aF0.97819999999999996
aF0.9788
aF0.97919999999999996
aF0.97940000000000005
aF0.97999999999999998
aF0.98040000000000005
aF0.98099999999999998
aF0.98160000000000003
aF0.98199999999999998
aF0.98280000000000001
aF0.98340000000000005
aF0.98360000000000003
aF0.98480000000000001
aF0.98560000000000003
aF0.98660000000000003
aF0.98740000000000006
aF0.98780000000000001
aF0.98799999999999999
aF0.98799999999999999
aF0.98899999999999999
aF0.98919999999999997
aF0.98919999999999997
aF0.98960000000000004
aF0.98980000000000001
aF0.99039999999999995
aF0.99060000000000004
aF0.99099999999999999
aF0.99139999999999995
aF0.99199999999999999
aF0.99239999999999995
aF0.99339999999999995
aF0.99360000000000004
aF0.99419999999999997
aF0.99539999999999995
aF0.997
aF1
atRp9
tt.